target datalayout = "e-m:e-p270:32:32-p271:32:32-p272:64:64-i64:64-i128:128-f80:128-n8:16:32:64-S128"
target triple = "x86_64-pc-linux-gnu"

; Function Attrs: inlinehint mustprogress nounwind uwtable
define internal void @_ZL5cpuidjjPjS_S_S_(i32 noundef %0, i32 noundef %1, ptr noundef %2, ptr noundef %3, ptr noundef %4, ptr noundef %5) #9 {
  %7 = alloca i32, align 4
  %8 = alloca i32, align 4
  %9 = alloca ptr, align 8
  %10 = alloca ptr, align 8
  %11 = alloca ptr, align 8
  %12 = alloca ptr, align 8
  store i32 %0, ptr %7, align 4
  store i32 %1, ptr %8, align 4
  store ptr %2, ptr %9, align 8
  store ptr %3, ptr %10, align 8
  store ptr %4, ptr %11, align 8
  store ptr %5, ptr %12, align 8
  %13 = load ptr, ptr %9, align 8
  %14 = load ptr, ptr %10, align 8
  %15 = load ptr, ptr %11, align 8
  %16 = load ptr, ptr %12, align 8
  %17 = load i32, ptr %7, align 4
  %18 = load i32, ptr %8, align 4
  %19 = call { i32, i32, i32, i32 } asm "  xchgq  %rbx,${1:q}\0A  cpuid\0A  xchgq  %rbx,${1:q}", "={ax},=r,={cx},={dx},0,2,~{dirflag},~{fpsr},~{flags}"(i32 %17, i32 %18) #6, !srcloc !10
  %20 = extractvalue { i32, i32, i32, i32 } %19, 0
  %21 = extractvalue { i32, i32, i32, i32 } %19, 1
  %22 = extractvalue { i32, i32, i32, i32 } %19, 2
  %23 = extractvalue { i32, i32, i32, i32 } %19, 3
  store i32 %20, ptr %13, align 4
  store i32 %21, ptr %14, align 4
  store i32 %22, ptr %15, align 4
  store i32 %23, ptr %16, align 4
  ret void
}

; Function Attrs: inlinehint mustprogress uwtable
define internal noundef i32 @_ZL11check_ssse3v() #5 {
  %1 = alloca i32, align 4
  %2 = alloca i32, align 4
  %3 = alloca i32, align 4
  %4 = alloca i32, align 4
  call void @llvm.lifetime.start.p0(i64 4, ptr %1) #17
  call void @llvm.lifetime.start.p0(i64 4, ptr %2) #17
  call void @llvm.lifetime.start.p0(i64 4, ptr %3) #17
  call void @llvm.lifetime.start.p0(i64 4, ptr %4) #17
  call void @_ZL5cpuidjjPjS_S_S_(i32 noundef 1, i32 noundef 0, ptr noundef %1, ptr noundef %2, ptr noundef %3, ptr noundef %4)
  %5 = load i32, ptr %3, align 4
  %6 = and i32 %5, 512
  %7 = icmp ne i32 %6, 0
  %8 = xor i1 %7, true
  %9 = xor i1 %8, true
  %10 = zext i1 %9 to i32
  call void @llvm.lifetime.end.p0(i64 4, ptr %4) #17
  call void @llvm.lifetime.end.p0(i64 4, ptr %3) #17
  call void @llvm.lifetime.end.p0(i64 4, ptr %2) #17
  call void @llvm.lifetime.end.p0(i64 4, ptr %1) #17
  ret i32 %10
}

; Function Attrs: mustprogress uwtable
define dso_local i32 @hs_free_compile_error(ptr noundef %0) #3 {
  %2 = alloca i32, align 4
  %3 = alloca ptr, align 8
  store ptr %0, ptr %3, align 8
  %4 = call noundef i32 @_ZL11check_ssse3v()
  %5 = icmp ne i32 %4, 0
  br i1 %5, label %7, label %6

6:                                                ; preds = %1
  store i32 -11, ptr %2, align 4
  br label %9

7:                                                ; preds = %1
  %8 = load ptr, ptr %3, align 8
  call void @_ZN3ue216freeCompileErrorEP16hs_compile_error(ptr noundef %8)
  store i32 0, ptr %2, align 4
  br label %9

9:                                                ; preds = %7, %6
  %10 = load i32, ptr %2, align 4
  ret i32 %10
}