; Function Attrs: mustprogress uwtable
define dso_local range(i32 -11, 1) i32 @hs_free_compile_error(ptr noundef %0) local_unnamed_addr #0 {
  %2 = tail call { i32, i32, i32, i32 } asm "  xchgq  %rbx,${1:q}\0A  cpuid\0A  xchgq  %rbx,${1:q}", "={ax},=r,={cx},={dx},0,2,~{dirflag},~{fpsr},~{flags}"(i32 1, i32 0) #17, !srcloc !5
  %3 = extractvalue { i32, i32, i32, i32 } %2, 2
  %4 = and i32 %3, 512
  %.not = icmp eq i32 %4, 0
  br i1 %.not, label %6, label %5

5:                                                ; preds = %1
  tail call void @_ZN3ue216freeCompileErrorEP16hs_compile_error(ptr noundef %0)
  br label %6

6:                                                ; preds = %1, %5
  %.0 = phi i32 [ 0, %5 ], [ -11, %1 ]
  ret i32 %.0
}